#include <math.h>
#include <stdio.h>
#include <stdlib.h>
#include <string.h>

int main()
{
int a[21],m,p;
a[0]=0;
a[1]=1;
for(int i=2;i<21;i++){
        a[i]=a[i-1]+a[i-2];
        }
int n;
scanf("%d",&n);
for(int j=0;j<n;j++){
    scanf("%d",&p);
    printf("%d\n",a[p]);
}
        int hou;
        scanf("%d",&hou);
return 0;
}
